; Function Attrs: mustprogress nofree nounwind willreturn memory(read, inaccessiblemem: none) uwtable
define hidden noundef zeroext i1 @_ZNK6google8protobuf4util15status_internal6StatuseqERKS3_(ptr noundef nonnull readonly align 8 captures(none) dereferenceable(40) %0, ptr noundef nonnull readonly align 8 captures(none) dereferenceable(40) %1) local_unnamed_addr #3 align 2 personality ptr @__gxx_personality_v0 {
  %3 = load i32, ptr %0, align 8, !tbaa !3
  %4 = load i32, ptr %1, align 8, !tbaa !3
  %5 = icmp eq i32 %3, %4
  br i1 %5, label %6, label %_ZSteqIcEN9__gnu_cxx11__enable_ifIXsr9__is_charIT_EE7__valueEbE6__typeERKNSt7__cxx1112basic_stringIS2_St11char_traitsIS2_ESaIS2_EEESC_.exit

6:                                                ; preds = %2
  %7 = getelementptr inbounds nuw i8, ptr %0, i64 8
  %8 = getelementptr inbounds nuw i8, ptr %1, i64 8
  %9 = getelementptr inbounds nuw i8, ptr %0, i64 16
  %10 = load i64, ptr %9, align 8, !tbaa !14
  %11 = getelementptr inbounds nuw i8, ptr %1, i64 16
  %12 = load i64, ptr %11, align 8, !tbaa !14
  %13 = icmp eq i64 %10, %12
  br i1 %13, label %14, label %_ZSteqIcEN9__gnu_cxx11__enable_ifIXsr9__is_charIT_EE7__valueEbE6__typeERKNSt7__cxx1112basic_stringIS2_St11char_traitsIS2_ESaIS2_EEESC_.exit

14:                                               ; preds = %6
  %15 = icmp eq i64 %10, 0
  br i1 %15, label %_ZSteqIcEN9__gnu_cxx11__enable_ifIXsr9__is_charIT_EE7__valueEbE6__typeERKNSt7__cxx1112basic_stringIS2_St11char_traitsIS2_ESaIS2_EEESC_.exit, label %16

16:                                               ; preds = %14
  %17 = load ptr, ptr %8, align 8, !tbaa !20
  %18 = load ptr, ptr %7, align 8, !tbaa !20
  %bcmp.i = tail call i32 @bcmp(ptr %18, ptr %17, i64 %10)
  %19 = icmp eq i32 %bcmp.i, 0
  br label %_ZSteqIcEN9__gnu_cxx11__enable_ifIXsr9__is_charIT_EE7__valueEbE6__typeERKNSt7__cxx1112basic_stringIS2_St11char_traitsIS2_ESaIS2_EEESC_.exit

_ZSteqIcEN9__gnu_cxx11__enable_ifIXsr9__is_charIT_EE7__valueEbE6__typeERKNSt7__cxx1112basic_stringIS2_St11char_traitsIS2_ESaIS2_EEESC_.exit: ; preds = %16, %14, %6, %2
  %20 = phi i1 [ false, %2 ], [ false, %6 ], [ %19, %16 ], [ true, %14 ]
  ret i1 %20
}